target datalayout = "e-m:e-p270:32:32-p271:32:32-p272:64:64-i64:64-i128:128-f80:128-n8:16:32:64-S128"
target triple = "x86_64-unknown-linux-gnu"

; Function Attrs: nounwind sspstrong uwtable
define dso_local void @qdict_set_default_str(ptr noundef %dst, ptr noundef %key, ptr noundef %val) #0 {
entry:
  %dst.addr = alloca ptr, align 8
  %key.addr = alloca ptr, align 8
  %val.addr = alloca ptr, align 8
  store ptr %dst, ptr %dst.addr, align 8
  store ptr %key, ptr %key.addr, align 8
  store ptr %val, ptr %val.addr, align 8
  %0 = load ptr, ptr %dst.addr, align 8
  %1 = load ptr, ptr %key.addr, align 8
  %call = call i32 @qdict_haskey(ptr noundef %0, ptr noundef %1)
  %tobool = icmp ne i32 %call, 0
  br i1 %tobool, label %if.then, label %if.end

if.then:                                          ; preds = %entry
  br label %return

if.end:                                           ; preds = %entry
  %2 = load ptr, ptr %dst.addr, align 8
  %3 = load ptr, ptr %key.addr, align 8
  %4 = load ptr, ptr %val.addr, align 8
  call void @qdict_put_str(ptr noundef %2, ptr noundef %3, ptr noundef %4)
  br label %return

return:                                           ; preds = %if.end, %if.then
  ret void
}