; Function Attrs: nounwind sspstrong uwtable
define dso_local void @qdict_set_default_str(ptr noundef %dst, ptr noundef %key, ptr noundef %val) local_unnamed_addr #0 {
entry:
  %call = tail call i32 @qdict_haskey(ptr noundef %dst, ptr noundef %key) #7
  %tobool.not = icmp eq i32 %call, 0
  br i1 %tobool.not, label %if.end, label %return

if.end:                                           ; preds = %entry
  tail call void @qdict_put_str(ptr noundef %dst, ptr noundef %key, ptr noundef %val) #7
  br label %return

return:                                           ; preds = %entry, %if.end
  ret void
}